; Function Attrs: nounwind uwtable
define dso_local ptr @lpPrepend(ptr noundef %0, ptr noundef captures(address_is_null) %1, i32 noundef %2) local_unnamed_addr #3 {
  %4 = alloca ptr, align 8
  %5 = getelementptr inbounds nuw i8, ptr %0, i64 6
  %6 = load i8, ptr %5, align 1, !tbaa !5
  %7 = icmp eq i8 %6, -1
  %8 = load i32, ptr %0, align 1
  %9 = zext i32 %8 to i64
  br i1 %7, label %13, label %10

10:                                               ; preds = %3
  call void @llvm.lifetime.start.p0(i64 8, ptr nonnull %4)
  store ptr %5, ptr %4, align 8, !tbaa !13
  %11 = call i32 @lpValidateNext(ptr noundef nonnull %0, ptr noundef nonnull %4, i64 noundef %9)
  %.not.i.i = icmp eq i32 %11, 0
  br i1 %.not.i.i, label %12, label %16, !prof !12

12:                                               ; preds = %10
  tail call void @_serverAssert(ptr noundef nonnull @.str.30, ptr noundef nonnull @.str.1, i32 noundef 1664) #20
  tail call void @abort() #21
  unreachable

13:                                               ; preds = %3
  %14 = getelementptr inbounds nuw i8, ptr %0, i64 %9
  %15 = getelementptr inbounds i8, ptr %14, i64 -1
  br label %17

16:                                               ; preds = %10
  call void @llvm.lifetime.end.p0(i64 8, ptr nonnull %4)
  br label %17

17:                                               ; preds = %16, %13
  %.sink = phi ptr [ %5, %16 ], [ %15, %13 ]
  %18 = tail call ptr @lpInsert(ptr noundef nonnull %0, ptr noundef %1, ptr noundef null, i32 noundef %2, ptr noundef nonnull %.sink, i32 noundef 0, ptr noundef null)
  ret ptr %18
}